; Function Attrs: mustprogress uwtable
define dso_local void @_ZN4Luau12TypeChecker25visitEPNS_12AstStatWhileE(ptr noundef nonnull align 8 dereferenceable(784) %0, ptr noundef readonly captures(none) %1) local_unnamed_addr #5 align 2 personality ptr @__gxx_personality_v0 {
  %3 = alloca %"class.std::optional.306", align 8
  %4 = getelementptr inbounds nuw i8, ptr %1, i64 32
  %5 = load ptr, ptr %4, align 8, !tbaa !267
  tail call void @_ZN4Luau12TypeChecker25visitEPNS_7AstExprENS_12ValueContextE(ptr noundef nonnull align 8 dereferenceable(784) %0, ptr noundef %5, i32 noundef 1)
  %6 = getelementptr inbounds nuw i8, ptr %1, i64 40
  %7 = load ptr, ptr %6, align 8, !tbaa !269
  call void @llvm.lifetime.start.p0(i64 24, ptr nonnull %3) #33
  call void @_ZN4Luau12TypeChecker29pushStackEPNS_7AstNodeE(ptr dead_on_unwind nonnull writable sret(%"class.std::optional.306") align 8 %3, ptr noundef nonnull align 8 dereferenceable(784) %0, ptr noundef %7)
  %8 = getelementptr inbounds nuw i8, ptr %7, i64 32
  %9 = load ptr, ptr %8, align 8, !tbaa !77
  %10 = getelementptr inbounds nuw i8, ptr %7, i64 40
  %11 = load i64, ptr %10, align 8, !tbaa !80
  %12 = getelementptr inbounds nuw ptr, ptr %9, i64 %11
  %.not13.i = icmp eq i64 %11, 0
  br i1 %.not13.i, label %._crit_edge.i, label %.lr.ph.i

._crit_edge.i:                                    ; preds = %23, %2
  %13 = getelementptr inbounds nuw i8, ptr %3, i64 16
  %14 = load i8, ptr %13, align 8, !tbaa !81, !range !83, !noundef !84
  %15 = trunc nuw i8 %14 to i1
  br i1 %15, label %16, label %_ZN4Luau12TypeChecker25visitEPNS_12AstStatBlockE.exit

16:                                               ; preds = %._crit_edge.i
  %17 = load ptr, ptr %3, align 8, !tbaa !85
  %.not.i.i.i.i.i.i = icmp eq ptr %17, null
  br i1 %.not.i.i.i.i.i.i, label %_ZN4Luau12TypeChecker25visitEPNS_12AstStatBlockE.exit, label %18

18:                                               ; preds = %16
  %19 = getelementptr inbounds nuw i8, ptr %17, i64 8
  %20 = load ptr, ptr %19, align 8, !tbaa !90
  %21 = getelementptr inbounds i8, ptr %20, i64 -8
  store ptr %21, ptr %19, align 8, !tbaa !90
  br label %_ZN4Luau12TypeChecker25visitEPNS_12AstStatBlockE.exit

.lr.ph.i:                                         ; preds = %2, %23
  %.014.i = phi ptr [ %24, %23 ], [ %9, %2 ]
  %22 = load ptr, ptr %.014.i, align 8, !tbaa !93
  invoke void @_ZN4Luau12TypeChecker25visitEPNS_7AstStatE(ptr noundef nonnull align 8 dereferenceable(784) %0, ptr noundef %22)
          to label %23 unwind label %25

23:                                               ; preds = %.lr.ph.i
  %24 = getelementptr inbounds nuw i8, ptr %.014.i, i64 8
  %.not.i = icmp eq ptr %24, %12
  br i1 %.not.i, label %._crit_edge.i, label %.lr.ph.i

25:                                               ; preds = %.lr.ph.i
  %26 = landingpad { ptr, i32 }
          cleanup
  %27 = getelementptr inbounds nuw i8, ptr %3, i64 16
  %28 = load i8, ptr %27, align 8, !tbaa !81, !range !83, !noundef !84
  %29 = trunc nuw i8 %28 to i1
  br i1 %29, label %30, label %_ZNSt14_Optional_baseIN4Luau11StackPusherELb0ELb0EED2Ev.exit12.i

30:                                               ; preds = %25
  %31 = load ptr, ptr %3, align 8, !tbaa !85
  %.not.i.i.i.i.i11.i = icmp eq ptr %31, null
  br i1 %.not.i.i.i.i.i11.i, label %_ZNSt14_Optional_baseIN4Luau11StackPusherELb0ELb0EED2Ev.exit12.i, label %32

32:                                               ; preds = %30
  %33 = getelementptr inbounds nuw i8, ptr %31, i64 8
  %34 = load ptr, ptr %33, align 8, !tbaa !90
  %35 = getelementptr inbounds i8, ptr %34, i64 -8
  store ptr %35, ptr %33, align 8, !tbaa !90
  br label %_ZNSt14_Optional_baseIN4Luau11StackPusherELb0ELb0EED2Ev.exit12.i

_ZNSt14_Optional_baseIN4Luau11StackPusherELb0ELb0EED2Ev.exit12.i: ; preds = %32, %30, %25
  call void @llvm.lifetime.end.p0(i64 24, ptr nonnull %3) #33
  resume { ptr, i32 } %26

_ZN4Luau12TypeChecker25visitEPNS_12AstStatBlockE.exit: ; preds = %._crit_edge.i, %16, %18
  call void @llvm.lifetime.end.p0(i64 24, ptr nonnull %3) #33
  ret void
}